; ModuleID = '54/1314.c'
source_filename = "54/1314.c"
target datalayout = "e-m:e-p270:32:32-p271:32:32-p272:64:64-i64:64-f80:128-n8:16:32:64-S128"
target triple = "x86_64-pc-linux-gnu"

@.str = private unnamed_addr constant [5 x i8] c"%d%d\00", align 1
@.str.1 = private unnamed_addr constant [3 x i8] c"%d\00", align 1

; Function Attrs: noinline nounwind uwtable
define dso_local void @main() #0 {
  %1 = alloca i32, align 4
  %2 = alloca i32, align 4
  %3 = alloca i32, align 4
  %4 = alloca i32, align 4
  %5 = alloca i32, align 4
  %6 = alloca i32, align 4
  %7 = alloca i32, align 4
  store i32 1, i32* %5, align 4
  store i32 0, i32* %6, align 4
  %8 = call i32 (i8*, ...) @__isoc99_scanf(i8* getelementptr inbounds ([5 x i8], [5 x i8]* @.str, i64 0, i64 0), i32* %3, i32* %4)
  store i32 1, i32* %7, align 4
  br label %9

9:                                                ; preds = %39, %0
  store i32 0, i32* %6, align 4
  %10 = load i32, i32* %7, align 4
  store i32 %10, i32* %5, align 4
  store i32 1, i32* %1, align 4
  br label %11

11:                                               ; preds = %31, %9
  %12 = load i32, i32* %1, align 4
  %13 = load i32, i32* %3, align 4
  %14 = icmp sle i32 %12, %13
  br i1 %14, label %15, label %34

15:                                               ; preds = %11
  %16 = load i32, i32* %5, align 4
  %17 = load i32, i32* %3, align 4
  %18 = sub nsw i32 %17, 1
  %19 = srem i32 %16, %18
  %20 = icmp ne i32 %19, 0
  br i1 %20, label %21, label %22

21:                                               ; preds = %15
  store i32 1, i32* %6, align 4
  br label %22

22:                                               ; preds = %21, %15
  %23 = load i32, i32* %5, align 4
  %24 = load i32, i32* %5, align 4
  %25 = load i32, i32* %3, align 4
  %26 = sub nsw i32 %25, 1
  %27 = sdiv i32 %24, %26
  %28 = add nsw i32 %23, %27
  %29 = load i32, i32* %4, align 4
  %30 = add nsw i32 %28, %29
  store i32 %30, i32* %5, align 4
  br label %31

31:                                               ; preds = %22
  %32 = load i32, i32* %1, align 4
  %33 = add nsw i32 %32, 1
  store i32 %33, i32* %1, align 4
  br label %11

34:                                               ; preds = %11
  %35 = load i32, i32* %6, align 4
  %36 = icmp eq i32 %35, 0
  br i1 %36, label %37, label %38

37:                                               ; preds = %34
  br label %42

38:                                               ; preds = %34
  br label %39

39:                                               ; preds = %38
  %40 = load i32, i32* %7, align 4
  %41 = add nsw i32 %40, 1
  store i32 %41, i32* %7, align 4
  br label %9

42:                                               ; preds = %37
  %43 = load i32, i32* %5, align 4
  %44 = call i32 (i8*, ...) @printf(i8* getelementptr inbounds ([3 x i8], [3 x i8]* @.str.1, i64 0, i64 0), i32 %43)
  ret void
}

declare dso_local i32 @__isoc99_scanf(i8*, ...) #1

declare dso_local i32 @printf(i8*, ...) #1


!llvm.module.flags = !{!0}
!llvm.ident = !{!1}

!0 = !{i32 1, !"wchar_size", i32 4}
!1 = !{!"clang version 10.0.0-4ubuntu1 "}
